; Function Attrs: mustprogress nounwind uwtable
define void @_ZN8facebook4yoga4Node13clearChildrenEv(ptr noundef nonnull align 8 dereferenceable(584) %0) local_unnamed_addr #15 align 2 personality ptr @__gxx_personality_v0 {
  %2 = getelementptr inbounds nuw i8, ptr %0, i64 536
  %3 = load ptr, ptr %2, align 8, !tbaa !66
  %4 = getelementptr inbounds nuw i8, ptr %0, i64 544
  %5 = load ptr, ptr %4, align 8, !tbaa !91
  %.not.i.i = icmp eq ptr %5, %3
  br i1 %.not.i.i, label %_ZNSt6vectorIPN8facebook4yoga4NodeESaIS3_EE5clearEv.exit, label %6

6:                                                ; preds = %1
  store ptr %3, ptr %4, align 8, !tbaa !91
  br label %_ZNSt6vectorIPN8facebook4yoga4NodeESaIS3_EE5clearEv.exit

_ZNSt6vectorIPN8facebook4yoga4NodeESaIS3_EE5clearEv.exit: ; preds = %1, %6
  %7 = getelementptr inbounds nuw i8, ptr %0, i64 552
  %8 = load ptr, ptr %7, align 8, !tbaa !67
  %9 = icmp eq ptr %8, %3
  br i1 %9, label %_ZNSt6vectorIPN8facebook4yoga4NodeESaIS3_EE13shrink_to_fitEv.exit, label %10

10:                                               ; preds = %_ZNSt6vectorIPN8facebook4yoga4NodeESaIS3_EE5clearEv.exit
  %11 = tail call noundef zeroext i1 @_ZNSt19__shrink_to_fit_auxISt6vectorIPN8facebook4yoga4NodeESaIS4_EELb1EE8_S_do_itERS6_(ptr noundef nonnull align 8 dereferenceable(24) %2) #25
  br label %_ZNSt6vectorIPN8facebook4yoga4NodeESaIS3_EE13shrink_to_fitEv.exit

_ZNSt6vectorIPN8facebook4yoga4NodeESaIS3_EE13shrink_to_fitEv.exit: ; preds = %_ZNSt6vectorIPN8facebook4yoga4NodeESaIS3_EE5clearEv.exit, %10
  ret void
}